target datalayout = "e-m:e-p270:32:32-p271:32:32-p272:64:64-i64:64-i128:128-f80:128-n8:16:32:64-S128"
target triple = "x86_64-pc-linux-gnu"

%struct.AVFilterContext = type { ptr, ptr, ptr, ptr, ptr, i32, ptr, ptr, i32, ptr, ptr, i32, i32, ptr, ptr, ptr, ptr, i32, ptr, i32, i32 }
%struct.AmplifyContext = type { ptr, ptr, i32, float, float, float, i32, float, float, i32, i32, i32, i32, [4 x i32], [4 x i32], ptr }

; Function Attrs: cold nounwind optsize uwtable
define internal void @uninit(ptr noundef %0) #0 {
  %2 = alloca ptr, align 8
  %3 = alloca ptr, align 8
  %4 = alloca i32, align 4
  store ptr %0, ptr %2, align 8, !tbaa !4
  call void @llvm.lifetime.start.p0(i64 8, ptr %3) #9
  %5 = load ptr, ptr %2, align 8, !tbaa !4
  %6 = getelementptr inbounds nuw %struct.AVFilterContext, ptr %5, i32 0, i32 9
  %7 = load ptr, ptr %6, align 8, !tbaa !9
  store ptr %7, ptr %3, align 8, !tbaa !22
  call void @llvm.lifetime.start.p0(i64 4, ptr %4) #9
  %8 = load ptr, ptr %3, align 8, !tbaa !22
  %9 = getelementptr inbounds nuw %struct.AmplifyContext, ptr %8, i32 0, i32 15
  %10 = load ptr, ptr %9, align 8, !tbaa !30
  %11 = icmp ne ptr %10, null
  br i1 %11, label %12, label %30

12:                                               ; preds = %1
  store i32 0, ptr %4, align 4, !tbaa !31
  br label %13

13:                                               ; preds = %26, %12
  %14 = load i32, ptr %4, align 4, !tbaa !31
  %15 = load ptr, ptr %3, align 8, !tbaa !22
  %16 = getelementptr inbounds nuw %struct.AmplifyContext, ptr %15, i32 0, i32 10
  %17 = load i32, ptr %16, align 8, !tbaa !32
  %18 = icmp slt i32 %14, %17
  br i1 %18, label %19, label %29

19:                                               ; preds = %13
  %20 = load ptr, ptr %3, align 8, !tbaa !22
  %21 = getelementptr inbounds nuw %struct.AmplifyContext, ptr %20, i32 0, i32 15
  %22 = load ptr, ptr %21, align 8, !tbaa !30
  %23 = load i32, ptr %4, align 4, !tbaa !31
  %24 = sext i32 %23 to i64
  %25 = getelementptr inbounds ptr, ptr %22, i64 %24
  call void @av_frame_free(ptr noundef %25)
  br label %26

26:                                               ; preds = %19
  %27 = load i32, ptr %4, align 4, !tbaa !31
  %28 = add nsw i32 %27, 1
  store i32 %28, ptr %4, align 4, !tbaa !31
  br label %13, !llvm.loop !33

29:                                               ; preds = %13
  br label %30

30:                                               ; preds = %29, %1
  %31 = load ptr, ptr %3, align 8, !tbaa !22
  %32 = getelementptr inbounds nuw %struct.AmplifyContext, ptr %31, i32 0, i32 15
  call void @av_freep(ptr noundef %32)
  call void @llvm.lifetime.end.p0(i64 4, ptr %4) #9
  call void @llvm.lifetime.end.p0(i64 8, ptr %3) #9
  ret void
}