; Function Attrs: cold nounwind optsize uwtable
define internal void @uninit(ptr noundef readonly captures(none) %0) #0 {
  %2 = getelementptr inbounds nuw i8, ptr %0, i64 72
  %3 = load ptr, ptr %2, align 8, !tbaa !4
  %4 = getelementptr inbounds nuw i8, ptr %3, i64 96
  %5 = load ptr, ptr %4, align 8, !tbaa !26
  %.not = icmp eq ptr %5, null
  br i1 %.not, label %.loopexit, label %.preheader

.preheader:                                       ; preds = %1
  %6 = getelementptr inbounds nuw i8, ptr %3, i64 48
  %7 = load i32, ptr %6, align 8, !tbaa !27
  %8 = icmp sgt i32 %7, 0
  br i1 %8, label %.lr.ph, label %.loopexit

.lr.ph:                                           ; preds = %.preheader, %.lr.ph
  %indvars.iv = phi i64 [ %indvars.iv.next, %.lr.ph ], [ 0, %.preheader ]
  %9 = load ptr, ptr %4, align 8, !tbaa !26
  %10 = getelementptr inbounds nuw ptr, ptr %9, i64 %indvars.iv
  tail call void @av_frame_free(ptr noundef %10) #8
  %indvars.iv.next = add nuw nsw i64 %indvars.iv, 1
  %11 = load i32, ptr %6, align 8, !tbaa !27
  %12 = sext i32 %11 to i64
  %13 = icmp slt i64 %indvars.iv.next, %12
  br i1 %13, label %.lr.ph, label %.loopexit, !llvm.loop !28

.loopexit:                                        ; preds = %.lr.ph, %.preheader, %1
  tail call void @av_freep(ptr noundef nonnull %4) #8
  ret void
}